target datalayout = "e-m:e-p270:32:32-p271:32:32-p272:64:64-i64:64-i128:128-f80:128-n8:16:32:64-S128"
target triple = "x86_64-pc-linux-gnu"

%struct.SDL_VideoDevice = type { ptr, ptr, ptr, ptr, ptr, ptr, ptr, ptr, ptr, ptr, ptr, ptr, ptr, ptr, ptr, ptr, ptr, ptr, ptr, ptr, ptr, ptr, ptr, ptr, ptr, ptr, ptr, ptr, ptr, ptr, ptr, ptr, ptr, ptr, ptr, ptr, ptr, ptr, ptr, ptr, ptr, ptr, ptr, ptr, ptr, ptr, ptr, ptr, ptr, ptr, ptr, ptr, ptr, ptr, ptr, ptr, ptr, ptr, ptr, ptr, ptr, ptr, ptr, ptr, ptr, ptr, ptr, ptr, ptr, ptr, ptr, ptr, ptr, ptr, ptr, ptr, ptr, ptr, ptr, ptr, ptr, ptr, ptr, ptr, ptr, ptr, ptr, ptr, ptr, ptr, ptr, ptr, ptr, ptr, ptr, ptr, ptr, i64, i8, i8, i8, ptr, i32, ptr, %struct.SDL_Rect, ptr, ptr, i32, ptr, ptr, ptr, ptr, i64, ptr, i8, i32, i32, %struct.anon, ptr, ptr, ptr, ptr, ptr, ptr, %struct.SDL_AtomicInt, %struct.SDL_AtomicInt, i8, %struct.anon.0, ptr, ptr, ptr, ptr, ptr }
%struct.SDL_Rect = type { i32, i32, i32, i32 }
%struct.anon = type { i32, i32, i32, i32, i32, i32, i32, i32, i32, i32, i32, i32, i32, i32, i32, i32, i32, i32, i32, i32, i32, i32, i32, i32, i32, i32, i32, i32, i32, [256 x i8], ptr }
%struct.SDL_AtomicInt = type { i32 }
%struct.anon.0 = type { ptr, ptr, i32, [256 x i8], ptr }
%struct.VkWaylandSurfaceCreateInfoKHR = type { i32, ptr, i32, ptr, ptr }
%struct.SDL_Window = type { i32, ptr, ptr, i32, i32, i32, i32, i32, i32, i32, i32, float, float, i32, i32, i64, i64, float, i8, i8, i32, i32, %struct.SDL_Rect, %struct.SDL_Rect, %struct.SDL_Rect, i8, i8, i8, %struct.SDL_DisplayMode, %struct.SDL_DisplayMode, %struct.SDL_HDROutputProperties, float, ptr, i8, i8, i8, i8, i8, i8, i8, i8, i8, i32, i32, i32, i32, %struct.SDL_Rect, i32, i8, %struct.SDL_Rect, i32, %struct.SDL_Rect, ptr, ptr, i32, float, i32, i32, ptr, ptr, ptr, ptr, ptr, ptr, ptr, ptr, ptr }
%struct.SDL_DisplayMode = type { i32, i32, i32, i32, float, float, i32, i32, ptr }
%struct.SDL_HDROutputProperties = type { float, float }
%struct.SDL_WindowData = type { ptr, ptr, ptr, ptr, ptr, ptr, ptr, %union.anon, i32, i32, i32, i32, ptr, ptr, ptr, ptr, ptr, ptr, ptr, ptr, ptr, ptr, ptr, ptr, ptr, ptr, %struct.SDL_AtomicInt, ptr, i32, ptr, double, ptr, i32, i32, i32, i32, %struct.anon.5, %struct.anon.6, %struct.anon.7, %struct.anon.8, %struct.anon.9, %struct.anon.10, %struct.anon.11, i32, i32, i32, i64, i32, i32, i8, i8, i8, i8, i8, i8, i8, i8, i8, i8, i8, i8, i8, i8, i32, %struct.wl_list }
%union.anon = type { %struct.anon.1 }
%struct.anon.1 = type { ptr, %union.anon.2, i8 }
%union.anon.2 = type { %struct.anon.4 }
%struct.anon.4 = type { ptr, ptr }
%struct.anon.5 = type { double, double }
%struct.anon.6 = type { i32, i32, i32, i32 }
%struct.anon.7 = type { i32, i32, i32, i32 }
%struct.anon.8 = type { i32, i32 }
%struct.anon.9 = type { i32, i32 }
%struct.anon.10 = type { i32, i32 }
%struct.anon.11 = type { i32, i32, i8 }
%struct.wl_list = type { ptr, ptr }
%struct.SDL_VideoData = type { i8, ptr, i32, ptr, ptr, ptr, ptr, i32, %struct.anon.12, ptr, ptr, ptr, ptr, ptr, ptr, ptr, ptr, ptr, ptr, ptr, ptr, ptr, ptr, ptr, ptr, ptr, ptr, ptr, ptr, ptr, ptr, %struct.wl_list, ptr, ptr, ptr, ptr, i32, i32, i8, i8 }
%struct.anon.12 = type { ptr }

@.str.9 = private unnamed_addr constant [26 x i8] c"vkCreateWaylandSurfaceKHR\00", align 1
@.str.10 = private unnamed_addr constant [21 x i8] c"Vulkan is not loaded\00", align 1
@.str.11 = private unnamed_addr constant [72 x i8] c"VK_KHR_wayland_surface extension is not enabled in the Vulkan instance.\00", align 1
@.str.12 = private unnamed_addr constant [37 x i8] c"vkCreateWaylandSurfaceKHR failed: %s\00", align 1

; Function Attrs: nounwind uwtable
define hidden zeroext i1 @Wayland_Vulkan_CreateSurface(ptr noundef %0, ptr noundef %1, ptr noundef %2, ptr noundef %3, ptr noundef %4) #0 {
  %6 = alloca i1, align 1
  %7 = alloca ptr, align 8
  %8 = alloca ptr, align 8
  %9 = alloca ptr, align 8
  %10 = alloca ptr, align 8
  %11 = alloca ptr, align 8
  %12 = alloca ptr, align 8
  %13 = alloca ptr, align 8
  %14 = alloca ptr, align 8
  %15 = alloca %struct.VkWaylandSurfaceCreateInfoKHR, align 8
  %16 = alloca i32, align 4
  %17 = alloca i32, align 4
  store ptr %0, ptr %7, align 8
  store ptr %1, ptr %8, align 8
  store ptr %2, ptr %9, align 8
  store ptr %3, ptr %10, align 8
  store ptr %4, ptr %11, align 8
  call void @llvm.lifetime.start.p0(i64 8, ptr %12) #4
  %18 = load ptr, ptr %8, align 8
  %19 = getelementptr inbounds nuw %struct.SDL_Window, ptr %18, i32 0, i32 59
  %20 = load ptr, ptr %19, align 8
  store ptr %20, ptr %12, align 8
  call void @llvm.lifetime.start.p0(i64 8, ptr %13) #4
  %21 = load ptr, ptr %7, align 8
  %22 = getelementptr inbounds nuw %struct.SDL_VideoDevice, ptr %21, i32 0, i32 127
  %23 = getelementptr inbounds nuw %struct.anon.0, ptr %22, i32 0, i32 0
  %24 = load ptr, ptr %23, align 8
  store ptr %24, ptr %13, align 8
  call void @llvm.lifetime.start.p0(i64 8, ptr %14) #4
  %25 = load ptr, ptr %13, align 8
  %26 = load ptr, ptr %9, align 8
  %27 = call ptr %25(ptr noundef %26, ptr noundef @.str.9)
  store ptr %27, ptr %14, align 8
  call void @llvm.lifetime.start.p0(i64 40, ptr %15) #4
  call void @llvm.lifetime.start.p0(i64 4, ptr %16) #4
  %28 = load ptr, ptr %7, align 8
  %29 = getelementptr inbounds nuw %struct.SDL_VideoDevice, ptr %28, i32 0, i32 127
  %30 = getelementptr inbounds nuw %struct.anon.0, ptr %29, i32 0, i32 4
  %31 = load ptr, ptr %30, align 8
  %32 = icmp ne ptr %31, null
  br i1 %32, label %35, label %33

33:                                               ; preds = %5
  %34 = call zeroext i1 (ptr, ...) @SDL_SetError_REAL(ptr noundef @.str.10)
  store i1 %34, ptr %6, align 1
  store i32 1, ptr %17, align 4
  br label %66

35:                                               ; preds = %5
  %36 = load ptr, ptr %14, align 8
  %37 = icmp ne ptr %36, null
  br i1 %37, label %40, label %38

38:                                               ; preds = %35
  %39 = call zeroext i1 (ptr, ...) @SDL_SetError_REAL(ptr noundef @.str.11)
  store i1 %39, ptr %6, align 1
  store i32 1, ptr %17, align 4
  br label %66

40:                                               ; preds = %35
  call void @llvm.memset.p0.i64(ptr align 8 %15, i8 0, i64 40, i1 false)
  %41 = getelementptr inbounds nuw %struct.VkWaylandSurfaceCreateInfoKHR, ptr %15, i32 0, i32 0
  store i32 1000006000, ptr %41, align 8
  %42 = getelementptr inbounds nuw %struct.VkWaylandSurfaceCreateInfoKHR, ptr %15, i32 0, i32 1
  store ptr null, ptr %42, align 8
  %43 = getelementptr inbounds nuw %struct.VkWaylandSurfaceCreateInfoKHR, ptr %15, i32 0, i32 2
  store i32 0, ptr %43, align 8
  %44 = load ptr, ptr %12, align 8
  %45 = getelementptr inbounds nuw %struct.SDL_WindowData, ptr %44, i32 0, i32 1
  %46 = load ptr, ptr %45, align 8
  %47 = getelementptr inbounds nuw %struct.SDL_VideoData, ptr %46, i32 0, i32 1
  %48 = load ptr, ptr %47, align 8
  %49 = getelementptr inbounds nuw %struct.VkWaylandSurfaceCreateInfoKHR, ptr %15, i32 0, i32 3
  store ptr %48, ptr %49, align 8
  %50 = load ptr, ptr %12, align 8
  %51 = getelementptr inbounds nuw %struct.SDL_WindowData, ptr %50, i32 0, i32 2
  %52 = load ptr, ptr %51, align 8
  %53 = getelementptr inbounds nuw %struct.VkWaylandSurfaceCreateInfoKHR, ptr %15, i32 0, i32 4
  store ptr %52, ptr %53, align 8
  %54 = load ptr, ptr %14, align 8
  %55 = load ptr, ptr %9, align 8
  %56 = load ptr, ptr %10, align 8
  %57 = load ptr, ptr %11, align 8
  %58 = call i32 %54(ptr noundef %55, ptr noundef %15, ptr noundef %56, ptr noundef %57)
  store i32 %58, ptr %16, align 4
  %59 = load i32, ptr %16, align 4
  %60 = icmp ne i32 %59, 0
  br i1 %60, label %61, label %65

61:                                               ; preds = %40
  %62 = load i32, ptr %16, align 4
  %63 = call ptr @SDL_Vulkan_GetResultString(i32 noundef %62)
  %64 = call zeroext i1 (ptr, ...) @SDL_SetError_REAL(ptr noundef @.str.12, ptr noundef %63)
  store i1 %64, ptr %6, align 1
  store i32 1, ptr %17, align 4
  br label %66

65:                                               ; preds = %40
  store i1 true, ptr %6, align 1
  store i32 1, ptr %17, align 4
  br label %66

66:                                               ; preds = %65, %61, %38, %33
  call void @llvm.lifetime.end.p0(i64 4, ptr %16) #4
  call void @llvm.lifetime.end.p0(i64 40, ptr %15) #4
  call void @llvm.lifetime.end.p0(i64 8, ptr %14) #4
  call void @llvm.lifetime.end.p0(i64 8, ptr %13) #4
  call void @llvm.lifetime.end.p0(i64 8, ptr %12) #4
  %67 = load i1, ptr %6, align 1
  ret i1 %67
}