; Function Attrs: nounwind uwtable
define hidden zeroext i1 @Wayland_Vulkan_CreateSurface(ptr noundef readonly captures(none) %0, ptr noundef readonly captures(none) %1, ptr noundef %2, ptr noundef %3, ptr noundef %4) local_unnamed_addr #0 {
  %6 = alloca %struct.VkWaylandSurfaceCreateInfoKHR, align 8
  %7 = getelementptr inbounds nuw i8, ptr %1, i64 392
  %8 = load ptr, ptr %7, align 8
  %9 = getelementptr inbounds nuw i8, ptr %0, i64 1368
  %10 = load ptr, ptr %9, align 8
  %11 = tail call ptr %10(ptr noundef %2, ptr noundef nonnull @.str.9) #5
  call void @llvm.lifetime.start.p0(i64 40, ptr nonnull %6) #5
  %12 = getelementptr inbounds nuw i8, ptr %0, i64 1648
  %13 = load ptr, ptr %12, align 8
  %.not = icmp eq ptr %13, null
  br i1 %.not, label %14, label %16

14:                                               ; preds = %5
  %15 = tail call zeroext i1 (ptr, ...) @SDL_SetError_REAL(ptr noundef nonnull @.str.10) #5
  br label %33

16:                                               ; preds = %5
  %.not16 = icmp eq ptr %11, null
  br i1 %.not16, label %17, label %19

17:                                               ; preds = %16
  %18 = tail call zeroext i1 (ptr, ...) @SDL_SetError_REAL(ptr noundef nonnull @.str.11) #5
  br label %33

19:                                               ; preds = %16
  call void @llvm.memset.p0.i64(ptr noundef nonnull align 8 dereferenceable(40) %6, i8 0, i64 24, i1 false)
  store i32 1000006000, ptr %6, align 8
  %20 = getelementptr inbounds nuw i8, ptr %6, i64 16
  store i32 0, ptr %20, align 8
  %21 = getelementptr inbounds nuw i8, ptr %8, i64 8
  %22 = load ptr, ptr %21, align 8
  %23 = getelementptr inbounds nuw i8, ptr %22, i64 8
  %24 = load ptr, ptr %23, align 8
  %25 = getelementptr inbounds nuw i8, ptr %6, i64 24
  store ptr %24, ptr %25, align 8
  %26 = getelementptr inbounds nuw i8, ptr %8, i64 16
  %27 = load ptr, ptr %26, align 8
  %28 = getelementptr inbounds nuw i8, ptr %6, i64 32
  store ptr %27, ptr %28, align 8
  %29 = call i32 %11(ptr noundef %2, ptr noundef nonnull %6, ptr noundef %3, ptr noundef %4) #5
  %.not17 = icmp eq i32 %29, 0
  br i1 %.not17, label %33, label %30

30:                                               ; preds = %19
  %31 = call ptr @SDL_Vulkan_GetResultString(i32 noundef %29) #5
  %32 = call zeroext i1 (ptr, ...) @SDL_SetError_REAL(ptr noundef nonnull @.str.12, ptr noundef %31) #5
  br label %33

33:                                               ; preds = %19, %30, %17, %14
  %.0 = phi i1 [ %32, %30 ], [ %18, %17 ], [ %15, %14 ], [ true, %19 ]
  call void @llvm.lifetime.end.p0(i64 40, ptr nonnull %6) #5
  ret i1 %.0
}